target datalayout = "e-m:e-p270:32:32-p271:32:32-p272:64:64-i64:64-i128:128-f80:128-n8:16:32:64-S128"
target triple = "x86_64-pc-linux-gnu"

%"class.absl::debugging_internal::ElfMemImage" = type { ptr, ptr, ptr, ptr, ptr, i32, i64, i64, i64 }
%"class.absl::debugging_internal::ElfMemImage::SymbolIterator" = type { %"struct.absl::debugging_internal::ElfMemImage::SymbolInfo", i32, ptr }
%"struct.absl::debugging_internal::ElfMemImage::SymbolInfo" = type { ptr, ptr, ptr, ptr }

@_ZN4absl18debugging_internal11ElfMemImage14SymbolIteratorC1EPKvj = dso_local unnamed_addr alias void (ptr, ptr, i32), ptr @_ZN4absl18debugging_internal11ElfMemImage14SymbolIteratorC2EPKvj

; Function Attrs: mustprogress nounwind uwtable
define dso_local noundef i32 @_ZNK4absl18debugging_internal11ElfMemImage13GetNumSymbolsEv(ptr noundef nonnull align 8 dereferenceable(72) %0) #4 align 2 {
  %2 = alloca ptr, align 8
  store ptr %0, ptr %2, align 8, !tbaa !4
  %3 = load ptr, ptr %2, align 8
  %4 = getelementptr inbounds nuw %"class.absl::debugging_internal::ElfMemImage", ptr %3, i32 0, i32 5
  %5 = load i32, ptr %4, align 8, !tbaa !21
  ret i32 %5
}

; Function Attrs: mustprogress uwtable
define dso_local void @_ZNK4absl18debugging_internal11ElfMemImage3endEv(ptr dead_on_unwind noalias writable sret(%"class.absl::debugging_internal::ElfMemImage::SymbolIterator") align 8 %0, ptr noundef nonnull align 8 dereferenceable(72) %1) #0 align 2 {
  %3 = alloca ptr, align 8
  store ptr %1, ptr %3, align 8, !tbaa !4
  %4 = load ptr, ptr %3, align 8
  %5 = call noundef i32 @_ZNK4absl18debugging_internal11ElfMemImage13GetNumSymbolsEv(ptr noundef nonnull align 8 dereferenceable(72) %4)
  call void @_ZN4absl18debugging_internal11ElfMemImage14SymbolIteratorC1EPKvj(ptr noundef nonnull align 8 dereferenceable(48) %0, ptr noundef %4, i32 noundef %5)
  ret void
}