; Function Attrs: mustprogress nofree norecurse nosync nounwind willreturn memory(argmem: readwrite) uwtable
define dso_local void @_ZNK4absl18debugging_internal11ElfMemImage3endEv(ptr dead_on_unwind noalias writable writeonly sret(%"class.absl::debugging_internal::ElfMemImage::SymbolIterator") align 8 captures(none) initializes((32, 36), (40, 48)) %0, ptr noundef nonnull align 8 dereferenceable(72) %1) local_unnamed_addr #6 align 2 {
  %3 = getelementptr inbounds nuw i8, ptr %1, i64 40
  %4 = load i32, ptr %3, align 8, !tbaa !38
  %5 = getelementptr inbounds nuw i8, ptr %0, i64 32
  store i32 %4, ptr %5, align 8, !tbaa !47
  %6 = getelementptr inbounds nuw i8, ptr %0, i64 40
  store ptr %1, ptr %6, align 8, !tbaa !53
  ret void
}